target datalayout = "e-m:e-p270:32:32-p271:32:32-p272:64:64-i64:64-i128:128-f80:128-n8:16:32:64-S128"
target triple = "x86_64-pc-linux-gnu"

@.str.11 = private unnamed_addr constant [16 x i8] c"_JVM_DWARF_PATH\00", align 1
@.str.12 = private unnamed_addr constant [13 x i8] c"/lib/server/\00", align 1
@.str.13 = private unnamed_addr constant [6 x i8] c"/lib/\00", align 1
@.str.14 = private unnamed_addr constant [6 x i8] c"/bin/\00", align 1
@.str.15 = private unnamed_addr constant [2 x i8] c"/\00", align 1

; Function Attrs: mustprogress nounwind uwtable
define hidden noundef zeroext i1 @_ZN7ElfFile33load_dwarf_file_from_env_var_pathERNS_13DwarfFilePathE(ptr noundef nonnull align 8 dereferenceable(144) %0, ptr noundef nonnull align 8 dereferenceable(4114) %1) #1 align 2 {
  %3 = alloca i1, align 1
  %4 = alloca ptr, align 8
  %5 = alloca ptr, align 8
  %6 = alloca ptr, align 8
  store ptr %0, ptr %4, align 8
  store ptr %1, ptr %5, align 8
  %7 = load ptr, ptr %4, align 8
  %8 = call ptr @getenv(ptr noundef @.str.11) #7
  store ptr %8, ptr %6, align 8
  %9 = load ptr, ptr %6, align 8
  %10 = icmp ne ptr %9, null
  br i1 %10, label %11, label %29

11:                                               ; preds = %2
  %12 = load ptr, ptr %5, align 8
  %13 = load ptr, ptr %6, align 8
  %14 = call noundef zeroext i1 @_ZN7ElfFile36load_dwarf_file_from_env_path_folderERNS_13DwarfFilePathEPKcS3_(ptr noundef nonnull align 8 dereferenceable(144) %7, ptr noundef nonnull align 8 dereferenceable(4114) %12, ptr noundef %13, ptr noundef @.str.12)
  br i1 %14, label %27, label %15

15:                                               ; preds = %11
  %16 = load ptr, ptr %5, align 8
  %17 = load ptr, ptr %6, align 8
  %18 = call noundef zeroext i1 @_ZN7ElfFile36load_dwarf_file_from_env_path_folderERNS_13DwarfFilePathEPKcS3_(ptr noundef nonnull align 8 dereferenceable(144) %7, ptr noundef nonnull align 8 dereferenceable(4114) %16, ptr noundef %17, ptr noundef @.str.13)
  br i1 %18, label %27, label %19

19:                                               ; preds = %15
  %20 = load ptr, ptr %5, align 8
  %21 = load ptr, ptr %6, align 8
  %22 = call noundef zeroext i1 @_ZN7ElfFile36load_dwarf_file_from_env_path_folderERNS_13DwarfFilePathEPKcS3_(ptr noundef nonnull align 8 dereferenceable(144) %7, ptr noundef nonnull align 8 dereferenceable(4114) %20, ptr noundef %21, ptr noundef @.str.14)
  br i1 %22, label %27, label %23

23:                                               ; preds = %19
  %24 = load ptr, ptr %5, align 8
  %25 = load ptr, ptr %6, align 8
  %26 = call noundef zeroext i1 @_ZN7ElfFile36load_dwarf_file_from_env_path_folderERNS_13DwarfFilePathEPKcS3_(ptr noundef nonnull align 8 dereferenceable(144) %7, ptr noundef nonnull align 8 dereferenceable(4114) %24, ptr noundef %25, ptr noundef @.str.15)
  br label %27

27:                                               ; preds = %23, %19, %15, %11
  %28 = phi i1 [ true, %19 ], [ true, %15 ], [ true, %11 ], [ %26, %23 ]
  store i1 %28, ptr %3, align 1
  br label %30

29:                                               ; preds = %2
  store i1 false, ptr %3, align 1
  br label %30

30:                                               ; preds = %29, %27
  %31 = load i1, ptr %3, align 1
  ret i1 %31
}