; Function Attrs: mustprogress nounwind uwtable
define hidden noundef zeroext i1 @_ZN7ElfFile33load_dwarf_file_from_env_var_pathERNS_13DwarfFilePathE(ptr nocapture noundef nonnull align 8 dereferenceable(144) %0, ptr noundef nonnull align 8 dereferenceable(4114) %1) local_unnamed_addr #0 align 2 {
  %3 = tail call ptr @getenv(ptr noundef nonnull @.str.11) #15
  %.not = icmp eq ptr %3, null
  br i1 %.not, label %12, label %4

4:                                                ; preds = %2
  %5 = tail call noundef zeroext i1 @_ZN7ElfFile36load_dwarf_file_from_env_path_folderERNS_13DwarfFilePathEPKcS3_(ptr noundef nonnull align 8 dereferenceable(144) %0, ptr noundef nonnull align 8 dereferenceable(4114) %1, ptr noundef nonnull %3, ptr noundef nonnull @.str.12)
  br i1 %5, label %12, label %6

6:                                                ; preds = %4
  %7 = tail call noundef zeroext i1 @_ZN7ElfFile36load_dwarf_file_from_env_path_folderERNS_13DwarfFilePathEPKcS3_(ptr noundef nonnull align 8 dereferenceable(144) %0, ptr noundef nonnull align 8 dereferenceable(4114) %1, ptr noundef nonnull %3, ptr noundef nonnull @.str.13)
  br i1 %7, label %12, label %8

8:                                                ; preds = %6
  %9 = tail call noundef zeroext i1 @_ZN7ElfFile36load_dwarf_file_from_env_path_folderERNS_13DwarfFilePathEPKcS3_(ptr noundef nonnull align 8 dereferenceable(144) %0, ptr noundef nonnull align 8 dereferenceable(4114) %1, ptr noundef nonnull %3, ptr noundef nonnull @.str.14)
  br i1 %9, label %12, label %10

10:                                               ; preds = %8
  %11 = tail call noundef zeroext i1 @_ZN7ElfFile36load_dwarf_file_from_env_path_folderERNS_13DwarfFilePathEPKcS3_(ptr noundef nonnull align 8 dereferenceable(144) %0, ptr noundef nonnull align 8 dereferenceable(4114) %1, ptr noundef nonnull %3, ptr noundef nonnull @.str.15)
  br label %12

12:                                               ; preds = %2, %4, %6, %8, %10
  %.0 = phi i1 [ true, %8 ], [ true, %6 ], [ true, %4 ], [ %11, %10 ], [ false, %2 ]
  ret i1 %.0
}